target datalayout = "e-m:e-p270:32:32-p271:32:32-p272:64:64-i64:64-i128:128-f80:128-n8:16:32:64-S128"
target triple = "x86_64-pc-linux-gnu"

; Function Attrs: nounwind uwtable
define internal i32 @int_end_context(ptr noundef %0, i32 noundef %1) #0 {
  %3 = alloca i32, align 4
  %4 = alloca ptr, align 8
  %5 = alloca i32, align 4
  %6 = alloca i64, align 8
  %7 = alloca i64, align 8
  %8 = alloca i32, align 4
  store ptr %0, ptr %4, align 8, !tbaa !3
  store i32 %1, ptr %5, align 4, !tbaa !8
  call void @llvm.lifetime.start.p0(i64 8, ptr %6) #5
  call void @llvm.lifetime.start.p0(i64 8, ptr %7) #5
  %9 = load i32, ptr %5, align 4, !tbaa !8
  %10 = icmp slt i32 %9, 0
  br i1 %10, label %11, label %12

11:                                               ; preds = %2
  store i32 1, ptr %3, align 4
  store i32 1, ptr %8, align 4
  br label %53

12:                                               ; preds = %2
  %13 = load i32, ptr %5, align 4, !tbaa !8
  %14 = icmp sle i32 %13, 30
  %15 = zext i1 %14 to i32
  %16 = icmp ne i32 %15, 0
  %17 = xor i1 %16, true
  %18 = xor i1 %17, true
  %19 = zext i1 %18 to i32
  %20 = sext i32 %19 to i64
  %21 = call i64 @llvm.expect.i64(i64 %20, i64 1)
  %22 = icmp ne i64 %21, 0
  br i1 %22, label %24, label %23

23:                                               ; preds = %12
  store i32 0, ptr %3, align 4
  store i32 1, ptr %8, align 4
  br label %53

24:                                               ; preds = %12
  %25 = load i32, ptr %5, align 4, !tbaa !8
  %26 = or i32 %25, 160
  store i32 %26, ptr %5, align 4, !tbaa !8
  %27 = load ptr, ptr %4, align 8, !tbaa !3
  %28 = call i32 @WPACKET_get_total_written(ptr noundef %27, ptr noundef %6)
  %29 = icmp ne i32 %28, 0
  br i1 %29, label %30, label %50

30:                                               ; preds = %24
  %31 = load ptr, ptr %4, align 8, !tbaa !3
  %32 = call i32 @WPACKET_close(ptr noundef %31)
  %33 = icmp ne i32 %32, 0
  br i1 %33, label %34, label %50

34:                                               ; preds = %30
  %35 = load ptr, ptr %4, align 8, !tbaa !3
  %36 = call i32 @WPACKET_get_total_written(ptr noundef %35, ptr noundef %7)
  %37 = icmp ne i32 %36, 0
  br i1 %37, label %38, label %50

38:                                               ; preds = %34
  %39 = load i64, ptr %6, align 8, !tbaa !12
  %40 = load i64, ptr %7, align 8, !tbaa !12
  %41 = icmp eq i64 %39, %40
  br i1 %41, label %48, label %42

42:                                               ; preds = %38
  %43 = load ptr, ptr %4, align 8, !tbaa !3
  %44 = load i32, ptr %5, align 4, !tbaa !8
  %45 = sext i32 %44 to i64
  %46 = call i32 @WPACKET_put_bytes__(ptr noundef %43, i64 noundef %45, i64 noundef 1)
  %47 = icmp ne i32 %46, 0
  br label %48

48:                                               ; preds = %42, %38
  %49 = phi i1 [ true, %38 ], [ %47, %42 ]
  br label %50

50:                                               ; preds = %48, %34, %30, %24
  %51 = phi i1 [ false, %34 ], [ false, %30 ], [ false, %24 ], [ %49, %48 ]
  %52 = zext i1 %51 to i32
  store i32 %52, ptr %3, align 4
  store i32 1, ptr %8, align 4
  br label %53

53:                                               ; preds = %50, %23, %11
  call void @llvm.lifetime.end.p0(i64 8, ptr %7) #5
  call void @llvm.lifetime.end.p0(i64 8, ptr %6) #5
  %54 = load i32, ptr %3, align 4
  ret i32 %54
}

; Function Attrs: nounwind uwtable
define internal i32 @int_start_context(ptr noundef %0, i32 noundef %1) #0 {
  %3 = alloca i32, align 4
  %4 = alloca ptr, align 8
  %5 = alloca i32, align 4
  store ptr %0, ptr %4, align 8, !tbaa !3
  store i32 %1, ptr %5, align 4, !tbaa !8
  %6 = load i32, ptr %5, align 4, !tbaa !8
  %7 = icmp slt i32 %6, 0
  br i1 %7, label %8, label %9

8:                                                ; preds = %2
  store i32 1, ptr %3, align 4
  br label %24

9:                                                ; preds = %2
  %10 = load i32, ptr %5, align 4, !tbaa !8
  %11 = icmp sle i32 %10, 30
  %12 = zext i1 %11 to i32
  %13 = icmp ne i32 %12, 0
  %14 = xor i1 %13, true
  %15 = xor i1 %14, true
  %16 = zext i1 %15 to i32
  %17 = sext i32 %16 to i64
  %18 = call i64 @llvm.expect.i64(i64 %17, i64 1)
  %19 = icmp ne i64 %18, 0
  br i1 %19, label %21, label %20

20:                                               ; preds = %9
  store i32 0, ptr %3, align 4
  br label %24

21:                                               ; preds = %9
  %22 = load ptr, ptr %4, align 8, !tbaa !3
  %23 = call i32 @WPACKET_start_sub_packet(ptr noundef %22)
  store i32 %23, ptr %3, align 4
  br label %24

24:                                               ; preds = %21, %20, %8
  %25 = load i32, ptr %3, align 4
  ret i32 %25
}

; Function Attrs: nounwind uwtable
define i32 @ossl_DER_w_boolean(ptr noundef %0, i32 noundef %1, i32 noundef %2) #0 {
  %4 = alloca ptr, align 8
  %5 = alloca i32, align 4
  %6 = alloca i32, align 4
  store ptr %0, ptr %4, align 8, !tbaa !3
  store i32 %1, ptr %5, align 4, !tbaa !8
  store i32 %2, ptr %6, align 4, !tbaa !8
  %7 = load ptr, ptr %4, align 8, !tbaa !3
  %8 = load i32, ptr %5, align 4, !tbaa !8
  %9 = call i32 @int_start_context(ptr noundef %7, i32 noundef %8)
  %10 = icmp ne i32 %9, 0
  br i1 %10, label %11, label %35

11:                                               ; preds = %3
  %12 = load ptr, ptr %4, align 8, !tbaa !3
  %13 = call i32 @WPACKET_start_sub_packet(ptr noundef %12)
  %14 = icmp ne i32 %13, 0
  br i1 %14, label %15, label %35

15:                                               ; preds = %11
  %16 = load i32, ptr %6, align 4, !tbaa !8
  %17 = icmp ne i32 %16, 0
  br i1 %17, label %18, label %22

18:                                               ; preds = %15
  %19 = load ptr, ptr %4, align 8, !tbaa !3
  %20 = call i32 @WPACKET_put_bytes__(ptr noundef %19, i64 noundef 255, i64 noundef 1)
  %21 = icmp ne i32 %20, 0
  br i1 %21, label %22, label %35

22:                                               ; preds = %18, %15
  %23 = load ptr, ptr %4, align 8, !tbaa !3
  %24 = call i32 @WPACKET_close(ptr noundef %23)
  %25 = icmp ne i32 %24, 0
  br i1 %25, label %35, label %26

26:                                               ; preds = %22
  %27 = load ptr, ptr %4, align 8, !tbaa !3
  %28 = call i32 @WPACKET_put_bytes__(ptr noundef %27, i64 noundef 1, i64 noundef 1)
  %29 = icmp ne i32 %28, 0
  br i1 %29, label %35, label %30

30:                                               ; preds = %26
  %31 = load ptr, ptr %4, align 8, !tbaa !3
  %32 = load i32, ptr %5, align 4, !tbaa !8
  %33 = call i32 @int_end_context(ptr noundef %31, i32 noundef %32)
  %34 = icmp ne i32 %33, 0
  br label %35

35:                                               ; preds = %30, %26, %22, %18, %11, %3
  %36 = phi i1 [ false, %26 ], [ false, %22 ], [ false, %18 ], [ false, %11 ], [ false, %3 ], [ %34, %30 ]
  %37 = zext i1 %36 to i32
  ret i32 %37
}