; Function Attrs: nounwind uwtable
define range(i32 0, 2) i32 @ossl_DER_w_boolean(ptr noundef %0, i32 noundef %1, i32 noundef %2) local_unnamed_addr #0 {
  %4 = alloca i64, align 8
  %5 = alloca i64, align 8
  %6 = icmp slt i32 %1, 0
  br i1 %6, label %int_start_context.exit.thread16, label %7

7:                                                ; preds = %3
  %8 = icmp samesign ult i32 %1, 31
  br i1 %8, label %int_start_context.exit, label %int_start_context.exit.thread, !prof !3

int_start_context.exit:                           ; preds = %7
  %9 = tail call i32 @WPACKET_start_sub_packet(ptr noundef %0) #4
  %.not = icmp eq i32 %9, 0
  br i1 %.not, label %int_start_context.exit.thread, label %int_start_context.exit.thread16

int_start_context.exit.thread16:                  ; preds = %3, %int_start_context.exit
  %10 = tail call i32 @WPACKET_start_sub_packet(ptr noundef %0) #4
  %.not8 = icmp eq i32 %10, 0
  br i1 %.not8, label %int_start_context.exit.thread, label %11

11:                                               ; preds = %int_start_context.exit.thread16
  %.not9 = icmp eq i32 %2, 0
  br i1 %.not9, label %14, label %12

12:                                               ; preds = %11
  %13 = tail call i32 @WPACKET_put_bytes__(ptr noundef %0, i64 noundef 255, i64 noundef 1) #4
  %.not10 = icmp eq i32 %13, 0
  br i1 %.not10, label %int_start_context.exit.thread, label %14

14:                                               ; preds = %12, %11
  %15 = tail call i32 @WPACKET_close(ptr noundef %0) #4
  %.not11 = icmp eq i32 %15, 0
  br i1 %.not11, label %16, label %int_start_context.exit.thread

16:                                               ; preds = %14
  %17 = tail call i32 @WPACKET_put_bytes__(ptr noundef %0, i64 noundef 1, i64 noundef 1) #4
  %.not12 = icmp eq i32 %17, 0
  br i1 %.not12, label %18, label %int_start_context.exit.thread

18:                                               ; preds = %16
  call void @llvm.lifetime.start.p0(i64 8, ptr nonnull %4) #4
  call void @llvm.lifetime.start.p0(i64 8, ptr nonnull %5) #4
  br i1 %6, label %int_end_context.exit, label %19

19:                                               ; preds = %18
  %20 = or disjoint i32 %1, 160
  %21 = call i32 @WPACKET_get_total_written(ptr noundef %0, ptr noundef nonnull %4) #4
  %.not.i = icmp eq i32 %21, 0
  br i1 %.not.i, label %int_end_context.exit, label %22

22:                                               ; preds = %19
  %23 = call i32 @WPACKET_close(ptr noundef %0) #4
  %.not9.i = icmp eq i32 %23, 0
  br i1 %.not9.i, label %int_end_context.exit, label %24

24:                                               ; preds = %22
  %25 = call i32 @WPACKET_get_total_written(ptr noundef %0, ptr noundef nonnull %5) #4
  %.not10.i = icmp eq i32 %25, 0
  br i1 %.not10.i, label %int_end_context.exit, label %26

26:                                               ; preds = %24
  %27 = load i64, ptr %4, align 8, !tbaa !4
  %28 = load i64, ptr %5, align 8, !tbaa !4
  %29 = icmp eq i64 %27, %28
  br i1 %29, label %int_end_context.exit, label %30

30:                                               ; preds = %26
  %31 = zext nneg i32 %20 to i64
  %32 = call i32 @WPACKET_put_bytes__(ptr noundef %0, i64 noundef %31, i64 noundef 1) #4
  %33 = icmp ne i32 %32, 0
  %34 = zext i1 %33 to i32
  br label %int_end_context.exit

int_end_context.exit:                             ; preds = %18, %19, %22, %24, %26, %30
  %.0.i13 = phi i32 [ 1, %18 ], [ 0, %24 ], [ 0, %22 ], [ 0, %19 ], [ 1, %26 ], [ %34, %30 ]
  call void @llvm.lifetime.end.p0(i64 8, ptr nonnull %5) #4
  call void @llvm.lifetime.end.p0(i64 8, ptr nonnull %4) #4
  br label %int_start_context.exit.thread

int_start_context.exit.thread:                    ; preds = %7, %int_end_context.exit, %16, %14, %12, %int_start_context.exit.thread16, %int_start_context.exit
  %35 = phi i32 [ 0, %16 ], [ 0, %14 ], [ 0, %12 ], [ 0, %int_start_context.exit.thread16 ], [ 0, %int_start_context.exit ], [ %.0.i13, %int_end_context.exit ], [ 0, %7 ]
  ret i32 %35
}